; Function Attrs: mustprogress nofree norecurse nosync nounwind willreturn memory(read, inaccessiblemem: none) uwtable
define noundef ptr @_ZNK7testing8TestCase11GetTestInfoEi(ptr noundef nonnull readonly align 8 captures(none) dereferenceable(248) %0, i32 noundef %1) local_unnamed_addr #11 align 2 {
  %3 = icmp slt i32 %1, 0
  br i1 %3, label %_ZN7testing8internal12GetElementOrIiEET_RKSt6vectorIS2_SaIS2_EEiS2_.exit.thread, label %4

4:                                                ; preds = %2
  %5 = getelementptr inbounds nuw i8, ptr %0, i64 72
  %6 = getelementptr inbounds nuw i8, ptr %0, i64 80
  %7 = load ptr, ptr %6, align 8, !tbaa !660
  %8 = load ptr, ptr %5, align 8, !tbaa !658
  %9 = ptrtoint ptr %7 to i64
  %10 = ptrtoint ptr %8 to i64
  %11 = sub i64 %9, %10
  %12 = lshr exact i64 %11, 2
  %13 = trunc i64 %12 to i32
  %.not.i = icmp slt i32 %1, %13
  br i1 %.not.i, label %_ZN7testing8internal12GetElementOrIiEET_RKSt6vectorIS2_SaIS2_EEiS2_.exit, label %_ZN7testing8internal12GetElementOrIiEET_RKSt6vectorIS2_SaIS2_EEiS2_.exit.thread

_ZN7testing8internal12GetElementOrIiEET_RKSt6vectorIS2_SaIS2_EEiS2_.exit: ; preds = %4
  %14 = zext nneg i32 %1 to i64
  %15 = getelementptr inbounds nuw i32, ptr %8, i64 %14
  %16 = load i32, ptr %15, align 4, !tbaa !18
  %17 = icmp slt i32 %16, 0
  br i1 %17, label %_ZN7testing8internal12GetElementOrIiEET_RKSt6vectorIS2_SaIS2_EEiS2_.exit.thread, label %18

18:                                               ; preds = %_ZN7testing8internal12GetElementOrIiEET_RKSt6vectorIS2_SaIS2_EEiS2_.exit
  %19 = getelementptr inbounds nuw i8, ptr %0, i64 48
  %20 = zext nneg i32 %16 to i64
  %21 = load ptr, ptr %19, align 8, !tbaa !249
  %22 = getelementptr inbounds nuw ptr, ptr %21, i64 %20
  %23 = load ptr, ptr %22, align 8, !tbaa !235
  br label %_ZN7testing8internal12GetElementOrIiEET_RKSt6vectorIS2_SaIS2_EEiS2_.exit.thread

_ZN7testing8internal12GetElementOrIiEET_RKSt6vectorIS2_SaIS2_EEiS2_.exit.thread: ; preds = %2, %4, %_ZN7testing8internal12GetElementOrIiEET_RKSt6vectorIS2_SaIS2_EEiS2_.exit, %18
  %24 = phi ptr [ %23, %18 ], [ null, %_ZN7testing8internal12GetElementOrIiEET_RKSt6vectorIS2_SaIS2_EEiS2_.exit ], [ null, %4 ], [ null, %2 ]
  ret ptr %24
}